; Function Attrs: nounwind uwtable
define noalias noundef ptr @Ssw_ClassesPrepareTargets(ptr noundef %0) local_unnamed_addr #0 {
  %2 = tail call ptr @Ssw_ClassesStart(ptr noundef %0)
  %3 = getelementptr inbounds nuw i8, ptr %2, i64 32
  store i32 0, ptr %3, align 8, !tbaa !39
  %4 = getelementptr i8, ptr %0, i64 112
  %.val16 = load i32, ptr %4, align 8, !tbaa !73
  %5 = icmp sgt i32 %.val16, 0
  br i1 %5, label %.lr.ph, label %.critedge

.lr.ph:                                           ; preds = %1
  %6 = getelementptr inbounds nuw i8, ptr %0, i64 24
  %7 = load ptr, ptr %6, align 8, !tbaa !75
  %8 = getelementptr i8, ptr %7, i64 8
  %.val = load ptr, ptr %8, align 8, !tbaa !29
  %9 = getelementptr i8, ptr %0, i64 48
  %10 = getelementptr i8, ptr %0, i64 256
  %.val14 = load ptr, ptr %10, align 8, !tbaa !33
  %wide.trip.count = zext nneg i32 %.val16 to i64
  %.val13.pre = load ptr, ptr %9, align 8, !tbaa !55
  br label %11

11:                                               ; preds = %.lr.ph, %11
  %indvars.iv = phi i64 [ 0, %.lr.ph ], [ %indvars.iv.next, %11 ]
  %12 = getelementptr inbounds nuw ptr, ptr %.val, i64 %indvars.iv
  %13 = load ptr, ptr %12, align 8, !tbaa !46
  %14 = getelementptr i8, ptr %13, i64 8
  %.val17 = load ptr, ptr %14, align 8, !tbaa !76
  %15 = ptrtoint ptr %.val17 to i64
  %16 = and i64 %15, -2
  %17 = inttoptr i64 %16 to ptr
  %18 = getelementptr i8, ptr %17, i64 36
  %.val15 = load i32, ptr %18, align 4, !tbaa !42
  %19 = sext i32 %.val15 to i64
  %20 = getelementptr inbounds ptr, ptr %.val14, i64 %19
  store ptr %.val13.pre, ptr %20, align 8, !tbaa !45
  %indvars.iv.next = add nuw nsw i64 %indvars.iv, 1
  %exitcond.not = icmp eq i64 %indvars.iv.next, %wide.trip.count
  br i1 %exitcond.not, label %..critedge_crit_edge, label %11, !llvm.loop !85

..critedge_crit_edge:                             ; preds = %11
  store i32 %.val16, ptr %3, align 8, !tbaa !39
  %21 = zext nneg i32 %.val16 to i64
  %22 = shl nuw nsw i64 %21, 3
  br label %.critedge

.critedge:                                        ; preds = %..critedge_crit_edge, %1
  %23 = phi i64 [ %22, %..critedge_crit_edge ], [ 0, %1 ]
  %24 = tail call noalias ptr @malloc(i64 noundef %23) #22
  %25 = getelementptr inbounds nuw i8, ptr %2, i64 40
  store ptr %24, ptr %25, align 8, !tbaa !38
  %26 = getelementptr inbounds nuw i8, ptr %2, i64 48
  store ptr %24, ptr %26, align 8, !tbaa !62
  ret ptr %2
}